target datalayout = "e-m:e-p270:32:32-p271:32:32-p272:64:64-i64:64-i128:128-f80:128-n8:16:32:64-S128"
target triple = "x86_64-pc-linux-gnu"

%struct.AVRational = type { i32, i32 }
%struct.AVCodecParameters = type { i32, i32, i32, ptr, i32, ptr, i32, i32, i64, i32, i32, i32, i32, i32, i32, %struct.AVRational, %struct.AVRational, i32, i32, i32, i32, i32, i32, i32, %struct.AVChannelLayout, i32, i32, i32, i32, i32, i32 }
%struct.AVChannelLayout = type { i32, i32, %union.anon, ptr }
%union.anon = type { i64 }

@.str.112 = private unnamed_addr constant [28 x i8] c"Guessed Channel Layout: %s\0A\00", align 1

; Function Attrs: nounwind uwtable
define internal i32 @guess_input_channel_layout(ptr noundef %0, ptr noundef %1, i32 noundef %2) #0 {
  %4 = alloca i32, align 4
  %5 = alloca ptr, align 8
  %6 = alloca ptr, align 8
  %7 = alloca i32, align 4
  %8 = alloca [256 x i8], align 16
  %9 = alloca i32, align 4
  store ptr %0, ptr %5, align 8, !tbaa !8
  store ptr %1, ptr %6, align 8, !tbaa !156
  store i32 %2, ptr %7, align 4, !tbaa !4
  %10 = load ptr, ptr %6, align 8, !tbaa !156
  %11 = getelementptr inbounds nuw %struct.AVCodecParameters, ptr %10, i32 0, i32 24
  %12 = getelementptr inbounds nuw %struct.AVChannelLayout, ptr %11, i32 0, i32 0
  %13 = load i32, ptr %12, align 8, !tbaa !394
  %14 = icmp eq i32 %13, 0
  br i1 %14, label %15, label %46

15:                                               ; preds = %3
  call void @llvm.lifetime.start.p0(i64 256, ptr %8) #12
  %16 = load ptr, ptr %6, align 8, !tbaa !156
  %17 = getelementptr inbounds nuw %struct.AVCodecParameters, ptr %16, i32 0, i32 24
  %18 = getelementptr inbounds nuw %struct.AVChannelLayout, ptr %17, i32 0, i32 1
  %19 = load i32, ptr %18, align 4, !tbaa !316
  %20 = load i32, ptr %7, align 4, !tbaa !4
  %21 = icmp sgt i32 %19, %20
  br i1 %21, label %22, label %23

22:                                               ; preds = %15
  store i32 0, ptr %4, align 4
  store i32 1, ptr %9, align 4
  br label %43

23:                                               ; preds = %15
  %24 = load ptr, ptr %6, align 8, !tbaa !156
  %25 = getelementptr inbounds nuw %struct.AVCodecParameters, ptr %24, i32 0, i32 24
  %26 = load ptr, ptr %6, align 8, !tbaa !156
  %27 = getelementptr inbounds nuw %struct.AVCodecParameters, ptr %26, i32 0, i32 24
  %28 = getelementptr inbounds nuw %struct.AVChannelLayout, ptr %27, i32 0, i32 1
  %29 = load i32, ptr %28, align 4, !tbaa !316
  call void @av_channel_layout_default(ptr noundef %25, i32 noundef %29)
  %30 = load ptr, ptr %6, align 8, !tbaa !156
  %31 = getelementptr inbounds nuw %struct.AVCodecParameters, ptr %30, i32 0, i32 24
  %32 = getelementptr inbounds nuw %struct.AVChannelLayout, ptr %31, i32 0, i32 0
  %33 = load i32, ptr %32, align 8, !tbaa !394
  %34 = icmp eq i32 %33, 0
  br i1 %34, label %35, label %36

35:                                               ; preds = %23
  store i32 0, ptr %4, align 4
  store i32 1, ptr %9, align 4
  br label %43

36:                                               ; preds = %23
  %37 = load ptr, ptr %6, align 8, !tbaa !156
  %38 = getelementptr inbounds nuw %struct.AVCodecParameters, ptr %37, i32 0, i32 24
  %39 = getelementptr inbounds [256 x i8], ptr %8, i64 0, i64 0
  %40 = call i32 @av_channel_layout_describe(ptr noundef %38, ptr noundef %39, i64 noundef 256)
  %41 = load ptr, ptr %5, align 8, !tbaa !8
  %42 = getelementptr inbounds [256 x i8], ptr %8, i64 0, i64 0
  call void (ptr, i32, ptr, ...) @av_log(ptr noundef %41, i32 noundef 24, ptr noundef @.str.112, ptr noundef %42)
  store i32 0, ptr %9, align 4
  br label %43

43:                                               ; preds = %36, %35, %22
  call void @llvm.lifetime.end.p0(i64 256, ptr %8) #12
  %44 = load i32, ptr %9, align 4
  switch i32 %44, label %49 [
    i32 0, label %45
    i32 1, label %47
  ]

45:                                               ; preds = %43
  br label %46

46:                                               ; preds = %45, %3
  store i32 1, ptr %4, align 4
  br label %47

47:                                               ; preds = %46, %43
  %48 = load i32, ptr %4, align 4
  ret i32 %48

49:                                               ; preds = %43
  unreachable
}