; Function Attrs: nounwind uwtable
define internal fastcc void @guess_input_channel_layout(ptr noundef nonnull %0, ptr noundef %1, i32 noundef %2) unnamed_addr #0 {
  %4 = alloca [256 x i8], align 16
  %5 = getelementptr inbounds nuw i8, ptr %1, i64 128
  %6 = load i32, ptr %5, align 8, !tbaa !344
  %7 = icmp eq i32 %6, 0
  br i1 %7, label %8, label %17

8:                                                ; preds = %3
  call void @llvm.lifetime.start.p0(i64 256, ptr nonnull %4) #14
  %9 = getelementptr inbounds nuw i8, ptr %1, i64 132
  %10 = load i32, ptr %9, align 4, !tbaa !261
  %11 = icmp sgt i32 %10, %2
  br i1 %11, label %.sink.split, label %12

12:                                               ; preds = %8
  tail call void @av_channel_layout_default(ptr noundef nonnull %5, i32 noundef %10) #14
  %13 = load i32, ptr %5, align 8, !tbaa !344
  %14 = icmp eq i32 %13, 0
  br i1 %14, label %.sink.split, label %15

15:                                               ; preds = %12
  %16 = call i32 @av_channel_layout_describe(ptr noundef nonnull %5, ptr noundef nonnull %4, i64 noundef 256) #14
  call void (ptr, i32, ptr, ...) @av_log(ptr noundef nonnull %0, i32 noundef 24, ptr noundef nonnull @.str.112, ptr noundef nonnull %4) #14
  br label %.sink.split

.sink.split:                                      ; preds = %12, %8, %15
  call void @llvm.lifetime.end.p0(i64 256, ptr nonnull %4) #14
  br label %17

17:                                               ; preds = %.sink.split, %3
  ret void
}